target datalayout = "e-m:e-p270:32:32-p271:32:32-p272:64:64-i64:64-i128:128-f80:128-n8:16:32:64-S128"
target triple = "x86_64-unknown-linux-gnu"

%"class.std::uniform_real_distribution" = type { %"struct.std::uniform_real_distribution<>::param_type" }
%"struct.std::uniform_real_distribution<>::param_type" = type { double, double }
%"struct.std::__detail::_Adaptor" = type { ptr }

@_ZZN8facebook5velox20generator_spec_utils8coinTossERSt23mersenne_twister_engineImLm32ELm624ELm397ELm31ELm2567483615ELm11ELm4294967295ELm7ELm2636928640ELm15ELm4022730752ELm18ELm1812433253EEdE4dist = internal global %"class.std::uniform_real_distribution" zeroinitializer, align 8
@_ZGVZN8facebook5velox20generator_spec_utils8coinTossERSt23mersenne_twister_engineImLm32ELm624ELm397ELm31ELm2567483615ELm11ELm4294967295ELm7ELm2636928640ELm15ELm4022730752ELm18ELm1812433253EEdE4dist = internal global i64 0, align 8

; Function Attrs: mustprogress nounwind uwtable
define linkonce_odr noundef nonnull align 8 dereferenceable(8) ptr @_ZSt3maxImERKT_S2_S2_(ptr noundef nonnull align 8 dereferenceable(8) %__a, ptr noundef nonnull align 8 dereferenceable(8) %__b) #2 comdat {
entry:
  %retval = alloca ptr, align 8
  %__a.addr = alloca ptr, align 8
  %__b.addr = alloca ptr, align 8
  store ptr %__a, ptr %__a.addr, align 8
  store ptr %__b, ptr %__b.addr, align 8
  %0 = load ptr, ptr %__a.addr, align 8
  %1 = load i64, ptr %0, align 8
  %2 = load ptr, ptr %__b.addr, align 8
  %3 = load i64, ptr %2, align 8
  %cmp = icmp ult i64 %1, %3
  br i1 %cmp, label %if.then, label %if.end

if.then:                                          ; preds = %entry
  %4 = load ptr, ptr %__b.addr, align 8
  store ptr %4, ptr %retval, align 8
  br label %return

if.end:                                           ; preds = %entry
  %5 = load ptr, ptr %__a.addr, align 8
  store ptr %5, ptr %retval, align 8
  br label %return

return:                                           ; preds = %if.end, %if.then
  %6 = load ptr, ptr %retval, align 8
  ret ptr %6
}

; Function Attrs: mustprogress nounwind uwtable
define linkonce_odr noundef x86_fp80 @_ZSt3loge(x86_fp80 noundef %__x) #2 comdat {
entry:
  %__x.addr = alloca x86_fp80, align 16
  store x86_fp80 %__x, ptr %__x.addr, align 16
  %0 = load x86_fp80, ptr %__x.addr, align 16
  %call = call x86_fp80 @logl(x86_fp80 noundef %0) #1
  ret x86_fp80 %call
}

; Function Attrs: mustprogress nounwind uwtable
define linkonce_odr noundef i64 @_ZNSt23mersenne_twister_engineImLm32ELm624ELm397ELm31ELm2567483615ELm11ELm4294967295ELm7ELm2636928640ELm15ELm4022730752ELm18ELm1812433253EE3minEv() #2 comdat align 2 {
entry:
  ret i64 0
}

; Function Attrs: mustprogress nounwind uwtable
define linkonce_odr noundef i64 @_ZNSt23mersenne_twister_engineImLm32ELm624ELm397ELm31ELm2567483615ELm11ELm4294967295ELm7ELm2636928640ELm15ELm4022730752ELm18ELm1812433253EE3maxEv() #2 comdat align 2 {
entry:
  ret i64 4294967295
}

; Function Attrs: mustprogress uwtable
define linkonce_odr noundef double @_ZSt18generate_canonicalIdLm53ESt23mersenne_twister_engineImLm32ELm624ELm397ELm31ELm2567483615ELm11ELm4294967295ELm7ELm2636928640ELm15ELm4022730752ELm18ELm1812433253EEET_RT1_(ptr noundef nonnull align 8 dereferenceable(5000) %__urng) #0 comdat {
entry:
  %__urng.addr = alloca ptr, align 8
  %__b = alloca i64, align 8
  %__r = alloca x86_fp80, align 16
  %__log2r = alloca i64, align 8
  %__m = alloca i64, align 8
  %ref.tmp = alloca i64, align 8
  %ref.tmp6 = alloca i64, align 8
  %__ret = alloca double, align 8
  %__sum = alloca double, align 8
  %__tmp = alloca double, align 8
  %__k = alloca i64, align 8
  store ptr %__urng, ptr %__urng.addr, align 8
  store i64 53, ptr %__b, align 8
  %call = call noundef i64 @_ZNSt23mersenne_twister_engineImLm32ELm624ELm397ELm31ELm2567483615ELm11ELm4294967295ELm7ELm2636928640ELm15ELm4022730752ELm18ELm1812433253EE3maxEv()
  %conv = uitofp i64 %call to x86_fp80
  %call1 = call noundef i64 @_ZNSt23mersenne_twister_engineImLm32ELm624ELm397ELm31ELm2567483615ELm11ELm4294967295ELm7ELm2636928640ELm15ELm4022730752ELm18ELm1812433253EE3minEv()
  %conv2 = uitofp i64 %call1 to x86_fp80
  %sub = fsub x86_fp80 %conv, %conv2
  %add = fadd x86_fp80 %sub, 0xK3FFF8000000000000000
  store x86_fp80 %add, ptr %__r, align 16
  %0 = load x86_fp80, ptr %__r, align 16
  %call3 = call noundef x86_fp80 @_ZSt3loge(x86_fp80 noundef %0)
  %call4 = call noundef x86_fp80 @_ZSt3loge(x86_fp80 noundef 0xK40008000000000000000)
  %div = fdiv x86_fp80 %call3, %call4
  %conv5 = fptoui x86_fp80 %div to i64
  store i64 %conv5, ptr %__log2r, align 8
  store i64 1, ptr %ref.tmp, align 8
  %1 = load i64, ptr %__log2r, align 8
  %add7 = add i64 53, %1
  %sub8 = sub i64 %add7, 1
  %2 = load i64, ptr %__log2r, align 8
  %div9 = udiv i64 %sub8, %2
  store i64 %div9, ptr %ref.tmp6, align 8
  %call10 = call noundef nonnull align 8 dereferenceable(8) ptr @_ZSt3maxImERKT_S2_S2_(ptr noundef nonnull align 8 dereferenceable(8) %ref.tmp, ptr noundef nonnull align 8 dereferenceable(8) %ref.tmp6)
  %3 = load i64, ptr %call10, align 8
  store i64 %3, ptr %__m, align 8
  store double 0.000000e+00, ptr %__sum, align 8
  store double 1.000000e+00, ptr %__tmp, align 8
  %4 = load i64, ptr %__m, align 8
  store i64 %4, ptr %__k, align 8
  br label %for.cond

for.cond:                                         ; preds = %for.inc, %entry
  %5 = load i64, ptr %__k, align 8
  %cmp = icmp ne i64 %5, 0
  br i1 %cmp, label %for.body, label %for.end

for.body:                                         ; preds = %for.cond
  %6 = load ptr, ptr %__urng.addr, align 8
  %call11 = call noundef i64 @_ZNSt23mersenne_twister_engineImLm32ELm624ELm397ELm31ELm2567483615ELm11ELm4294967295ELm7ELm2636928640ELm15ELm4022730752ELm18ELm1812433253EEclEv(ptr noundef nonnull align 8 dereferenceable(5000) %6)
  %call12 = call noundef i64 @_ZNSt23mersenne_twister_engineImLm32ELm624ELm397ELm31ELm2567483615ELm11ELm4294967295ELm7ELm2636928640ELm15ELm4022730752ELm18ELm1812433253EE3minEv()
  %sub13 = sub i64 %call11, %call12
  %conv14 = uitofp i64 %sub13 to double
  %7 = load double, ptr %__tmp, align 8
  %8 = load double, ptr %__sum, align 8
  %9 = call double @llvm.fmuladd.f64(double %conv14, double %7, double %8)
  store double %9, ptr %__sum, align 8
  %10 = load x86_fp80, ptr %__r, align 16
  %11 = load double, ptr %__tmp, align 8
  %conv15 = fpext double %11 to x86_fp80
  %mul = fmul x86_fp80 %conv15, %10
  %conv16 = fptrunc x86_fp80 %mul to double
  store double %conv16, ptr %__tmp, align 8
  br label %for.inc

for.inc:                                          ; preds = %for.body
  %12 = load i64, ptr %__k, align 8
  %dec = add i64 %12, -1
  store i64 %dec, ptr %__k, align 8
  br label %for.cond, !llvm.loop !9

for.end:                                          ; preds = %for.cond
  %13 = load double, ptr %__sum, align 8
  %14 = load double, ptr %__tmp, align 8
  %div17 = fdiv double %13, %14
  store double %div17, ptr %__ret, align 8
  %15 = load double, ptr %__ret, align 8
  %cmp18 = fcmp oge double %15, 1.000000e+00
  br i1 %cmp18, label %if.then, label %if.end

if.then:                                          ; preds = %for.end
  %call20 = call double @nextafter(double noundef 1.000000e+00, double noundef 0.000000e+00) #1
  store double %call20, ptr %__ret, align 8
  br label %if.end

if.end:                                           ; preds = %if.then, %for.end
  %16 = load double, ptr %__ret, align 8
  ret double %16
}

; Function Attrs: mustprogress nounwind uwtable
define linkonce_odr noundef double @_ZNKSt25uniform_real_distributionIdE10param_type1aEv(ptr noundef nonnull align 8 dereferenceable(16) %this) #2 comdat align 2 {
entry:
  %this.addr = alloca ptr, align 8
  store ptr %this, ptr %this.addr, align 8
  %this1 = load ptr, ptr %this.addr, align 8
  %_M_a = getelementptr inbounds %"struct.std::uniform_real_distribution<>::param_type", ptr %this1, i32 0, i32 0
  %0 = load double, ptr %_M_a, align 8
  ret double %0
}

; Function Attrs: mustprogress nounwind uwtable
define linkonce_odr noundef double @_ZNKSt25uniform_real_distributionIdE10param_type1bEv(ptr noundef nonnull align 8 dereferenceable(16) %this) #2 comdat align 2 {
entry:
  %this.addr = alloca ptr, align 8
  store ptr %this, ptr %this.addr, align 8
  %this1 = load ptr, ptr %this.addr, align 8
  %_M_b = getelementptr inbounds %"struct.std::uniform_real_distribution<>::param_type", ptr %this1, i32 0, i32 1
  %0 = load double, ptr %_M_b, align 8
  ret double %0
}

; Function Attrs: mustprogress uwtable
define linkonce_odr noundef double @_ZNSt8__detail8_AdaptorISt23mersenne_twister_engineImLm32ELm624ELm397ELm31ELm2567483615ELm11ELm4294967295ELm7ELm2636928640ELm15ELm4022730752ELm18ELm1812433253EEdEclEv(ptr noundef nonnull align 8 dereferenceable(8) %this) #0 comdat align 2 {
entry:
  %this.addr = alloca ptr, align 8
  store ptr %this, ptr %this.addr, align 8
  %this1 = load ptr, ptr %this.addr, align 8
  %_M_g = getelementptr inbounds %"struct.std::__detail::_Adaptor", ptr %this1, i32 0, i32 0
  %0 = load ptr, ptr %_M_g, align 8
  %call = call noundef double @_ZSt18generate_canonicalIdLm53ESt23mersenne_twister_engineImLm32ELm624ELm397ELm31ELm2567483615ELm11ELm4294967295ELm7ELm2636928640ELm15ELm4022730752ELm18ELm1812433253EEET_RT1_(ptr noundef nonnull align 8 dereferenceable(5000) %0)
  ret double %call
}

; Function Attrs: mustprogress nounwind uwtable
define linkonce_odr void @_ZNSt8__detail8_AdaptorISt23mersenne_twister_engineImLm32ELm624ELm397ELm31ELm2567483615ELm11ELm4294967295ELm7ELm2636928640ELm15ELm4022730752ELm18ELm1812433253EEdEC2ERS2_(ptr noundef nonnull align 8 dereferenceable(8) %this, ptr noundef nonnull align 8 dereferenceable(5000) %__g) unnamed_addr #2 comdat align 2 {
entry:
  %this.addr = alloca ptr, align 8
  %__g.addr = alloca ptr, align 8
  store ptr %this, ptr %this.addr, align 8
  store ptr %__g, ptr %__g.addr, align 8
  %this1 = load ptr, ptr %this.addr, align 8
  %_M_g = getelementptr inbounds %"struct.std::__detail::_Adaptor", ptr %this1, i32 0, i32 0
  %0 = load ptr, ptr %__g.addr, align 8
  store ptr %0, ptr %_M_g, align 8
  ret void
}

; Function Attrs: mustprogress uwtable
define linkonce_odr noundef double @_ZNSt25uniform_real_distributionIdEclISt23mersenne_twister_engineImLm32ELm624ELm397ELm31ELm2567483615ELm11ELm4294967295ELm7ELm2636928640ELm15ELm4022730752ELm18ELm1812433253EEEEdRT_RKNS0_10param_typeE(ptr noundef nonnull align 8 dereferenceable(16) %this, ptr noundef nonnull align 8 dereferenceable(5000) %__urng, ptr noundef nonnull align 8 dereferenceable(16) %__p) #0 comdat align 2 {
entry:
  %this.addr = alloca ptr, align 8
  %__urng.addr = alloca ptr, align 8
  %__p.addr = alloca ptr, align 8
  %__aurng = alloca %"struct.std::__detail::_Adaptor", align 8
  store ptr %this, ptr %this.addr, align 8
  store ptr %__urng, ptr %__urng.addr, align 8
  store ptr %__p, ptr %__p.addr, align 8
  %0 = load ptr, ptr %__urng.addr, align 8
  call void @_ZNSt8__detail8_AdaptorISt23mersenne_twister_engineImLm32ELm624ELm397ELm31ELm2567483615ELm11ELm4294967295ELm7ELm2636928640ELm15ELm4022730752ELm18ELm1812433253EEdEC2ERS2_(ptr noundef nonnull align 8 dereferenceable(8) %__aurng, ptr noundef nonnull align 8 dereferenceable(5000) %0)
  %call = call noundef double @_ZNSt8__detail8_AdaptorISt23mersenne_twister_engineImLm32ELm624ELm397ELm31ELm2567483615ELm11ELm4294967295ELm7ELm2636928640ELm15ELm4022730752ELm18ELm1812433253EEdEclEv(ptr noundef nonnull align 8 dereferenceable(8) %__aurng)
  %1 = load ptr, ptr %__p.addr, align 8
  %call2 = call noundef double @_ZNKSt25uniform_real_distributionIdE10param_type1bEv(ptr noundef nonnull align 8 dereferenceable(16) %1)
  %2 = load ptr, ptr %__p.addr, align 8
  %call3 = call noundef double @_ZNKSt25uniform_real_distributionIdE10param_type1aEv(ptr noundef nonnull align 8 dereferenceable(16) %2)
  %sub = fsub double %call2, %call3
  %3 = load ptr, ptr %__p.addr, align 8
  %call4 = call noundef double @_ZNKSt25uniform_real_distributionIdE10param_type1aEv(ptr noundef nonnull align 8 dereferenceable(16) %3)
  %4 = call double @llvm.fmuladd.f64(double %call, double %sub, double %call4)
  ret double %4
}

; Function Attrs: mustprogress nounwind uwtable
define linkonce_odr void @_ZNSt25uniform_real_distributionIdE10param_typeC2Edd(ptr noundef nonnull align 8 dereferenceable(16) %this, double noundef %__a, double noundef %__b) unnamed_addr #2 comdat align 2 {
entry:
  %this.addr = alloca ptr, align 8
  %__a.addr = alloca double, align 8
  %__b.addr = alloca double, align 8
  store ptr %this, ptr %this.addr, align 8
  store double %__a, ptr %__a.addr, align 8
  store double %__b, ptr %__b.addr, align 8
  %this1 = load ptr, ptr %this.addr, align 8
  %_M_a = getelementptr inbounds %"struct.std::uniform_real_distribution<>::param_type", ptr %this1, i32 0, i32 0
  %0 = load double, ptr %__a.addr, align 8
  store double %0, ptr %_M_a, align 8
  %_M_b = getelementptr inbounds %"struct.std::uniform_real_distribution<>::param_type", ptr %this1, i32 0, i32 1
  %1 = load double, ptr %__b.addr, align 8
  store double %1, ptr %_M_b, align 8
  br label %do.body

do.body:                                          ; preds = %entry
  br label %do.end

do.end:                                           ; preds = %do.body
  ret void
}

; Function Attrs: mustprogress uwtable
define linkonce_odr noundef double @_ZNSt25uniform_real_distributionIdEclISt23mersenne_twister_engineImLm32ELm624ELm397ELm31ELm2567483615ELm11ELm4294967295ELm7ELm2636928640ELm15ELm4022730752ELm18ELm1812433253EEEEdRT_(ptr noundef nonnull align 8 dereferenceable(16) %this, ptr noundef nonnull align 8 dereferenceable(5000) %__urng) #0 comdat align 2 {
entry:
  %this.addr = alloca ptr, align 8
  %__urng.addr = alloca ptr, align 8
  store ptr %this, ptr %this.addr, align 8
  store ptr %__urng, ptr %__urng.addr, align 8
  %this1 = load ptr, ptr %this.addr, align 8
  %0 = load ptr, ptr %__urng.addr, align 8
  %_M_param = getelementptr inbounds %"class.std::uniform_real_distribution", ptr %this1, i32 0, i32 0
  %call = call noundef double @_ZNSt25uniform_real_distributionIdEclISt23mersenne_twister_engineImLm32ELm624ELm397ELm31ELm2567483615ELm11ELm4294967295ELm7ELm2636928640ELm15ELm4022730752ELm18ELm1812433253EEEEdRT_RKNS0_10param_typeE(ptr noundef nonnull align 8 dereferenceable(16) %this1, ptr noundef nonnull align 8 dereferenceable(5000) %0, ptr noundef nonnull align 8 dereferenceable(16) %_M_param)
  ret double %call
}

; Function Attrs: mustprogress uwtable
define linkonce_odr void @_ZNSt25uniform_real_distributionIdEC2Edd(ptr noundef nonnull align 8 dereferenceable(16) %this, double noundef %__a, double noundef %__b) unnamed_addr #0 comdat align 2 {
entry:
  %this.addr = alloca ptr, align 8
  %__a.addr = alloca double, align 8
  %__b.addr = alloca double, align 8
  store ptr %this, ptr %this.addr, align 8
  store double %__a, ptr %__a.addr, align 8
  store double %__b, ptr %__b.addr, align 8
  %this1 = load ptr, ptr %this.addr, align 8
  %_M_param = getelementptr inbounds %"class.std::uniform_real_distribution", ptr %this1, i32 0, i32 0
  %0 = load double, ptr %__a.addr, align 8
  %1 = load double, ptr %__b.addr, align 8
  call void @_ZNSt25uniform_real_distributionIdE10param_typeC2Edd(ptr noundef nonnull align 8 dereferenceable(16) %_M_param, double noundef %0, double noundef %1)
  ret void
}

; Function Attrs: mustprogress uwtable
define noundef zeroext i1 @_ZN8facebook5velox20generator_spec_utils8coinTossERSt23mersenne_twister_engineImLm32ELm624ELm397ELm31ELm2567483615ELm11ELm4294967295ELm7ELm2636928640ELm15ELm4022730752ELm18ELm1812433253EEd(ptr noundef nonnull align 8 dereferenceable(5000) %rng, double noundef %threshold) #0 personality ptr @__gxx_personality_v0 {
entry:
  %rng.addr = alloca ptr, align 8
  %threshold.addr = alloca double, align 8
  %exn.slot = alloca ptr, align 8
  %ehselector.slot = alloca i32, align 4
  store ptr %rng, ptr %rng.addr, align 8
  store double %threshold, ptr %threshold.addr, align 8
  %0 = load atomic i8, ptr @_ZGVZN8facebook5velox20generator_spec_utils8coinTossERSt23mersenne_twister_engineImLm32ELm624ELm397ELm31ELm2567483615ELm11ELm4294967295ELm7ELm2636928640ELm15ELm4022730752ELm18ELm1812433253EEdE4dist acquire, align 8
  %guard.uninitialized = icmp eq i8 %0, 0
  br i1 %guard.uninitialized, label %init.check, label %init.end, !prof !4

init.check:                                       ; preds = %entry
  %1 = call i32 @__cxa_guard_acquire(ptr @_ZGVZN8facebook5velox20generator_spec_utils8coinTossERSt23mersenne_twister_engineImLm32ELm624ELm397ELm31ELm2567483615ELm11ELm4294967295ELm7ELm2636928640ELm15ELm4022730752ELm18ELm1812433253EEdE4dist) #1
  %tobool = icmp ne i32 %1, 0
  br i1 %tobool, label %init, label %init.end

init:                                             ; preds = %init.check
  invoke void @_ZNSt25uniform_real_distributionIdEC2Edd(ptr noundef nonnull align 8 dereferenceable(16) @_ZZN8facebook5velox20generator_spec_utils8coinTossERSt23mersenne_twister_engineImLm32ELm624ELm397ELm31ELm2567483615ELm11ELm4294967295ELm7ELm2636928640ELm15ELm4022730752ELm18ELm1812433253EEdE4dist, double noundef 0.000000e+00, double noundef 1.000000e+00)
          to label %invoke.cont unwind label %lpad

invoke.cont:                                      ; preds = %init
  call void @__cxa_guard_release(ptr @_ZGVZN8facebook5velox20generator_spec_utils8coinTossERSt23mersenne_twister_engineImLm32ELm624ELm397ELm31ELm2567483615ELm11ELm4294967295ELm7ELm2636928640ELm15ELm4022730752ELm18ELm1812433253EEdE4dist) #1
  br label %init.end

init.end:                                         ; preds = %invoke.cont, %init.check, %entry
  %2 = load ptr, ptr %rng.addr, align 8
  %call = call noundef double @_ZNSt25uniform_real_distributionIdEclISt23mersenne_twister_engineImLm32ELm624ELm397ELm31ELm2567483615ELm11ELm4294967295ELm7ELm2636928640ELm15ELm4022730752ELm18ELm1812433253EEEEdRT_(ptr noundef nonnull align 8 dereferenceable(16) @_ZZN8facebook5velox20generator_spec_utils8coinTossERSt23mersenne_twister_engineImLm32ELm624ELm397ELm31ELm2567483615ELm11ELm4294967295ELm7ELm2636928640ELm15ELm4022730752ELm18ELm1812433253EEdE4dist, ptr noundef nonnull align 8 dereferenceable(5000) %2)
  %3 = load double, ptr %threshold.addr, align 8
  %cmp = fcmp olt double %call, %3
  ret i1 %cmp

lpad:                                             ; preds = %init
  %4 = landingpad { ptr, i32 }
          cleanup
  %5 = extractvalue { ptr, i32 } %4, 0
  store ptr %5, ptr %exn.slot, align 8
  %6 = extractvalue { ptr, i32 } %4, 1
  store i32 %6, ptr %ehselector.slot, align 4
  call void @__cxa_guard_abort(ptr @_ZGVZN8facebook5velox20generator_spec_utils8coinTossERSt23mersenne_twister_engineImLm32ELm624ELm397ELm31ELm2567483615ELm11ELm4294967295ELm7ELm2636928640ELm15ELm4022730752ELm18ELm1812433253EEdE4dist) #1
  br label %eh.resume

eh.resume:                                        ; preds = %lpad
  %exn = load ptr, ptr %exn.slot, align 8
  %sel = load i32, ptr %ehselector.slot, align 4
  %lpad.val = insertvalue { ptr, i32 } poison, ptr %exn, 0
  %lpad.val1 = insertvalue { ptr, i32 } %lpad.val, i32 %sel, 1
  resume { ptr, i32 } %lpad.val1
}