; Function Attrs: mustprogress uwtable
define noundef zeroext i1 @_ZN8facebook5velox20generator_spec_utils8coinTossERSt23mersenne_twister_engineImLm32ELm624ELm397ELm31ELm2567483615ELm11ELm4294967295ELm7ELm2636928640ELm15ELm4022730752ELm18ELm1812433253EEd(ptr noundef nonnull align 8 dereferenceable(5000) %rng, double noundef %threshold) local_unnamed_addr #0 personality ptr @__gxx_personality_v0 {
entry:
  %0 = load atomic i8, ptr @_ZGVZN8facebook5velox20generator_spec_utils8coinTossERSt23mersenne_twister_engineImLm32ELm624ELm397ELm31ELm2567483615ELm11ELm4294967295ELm7ELm2636928640ELm15ELm4022730752ELm18ELm1812433253EEdE4dist acquire, align 8
  %guard.uninitialized = icmp eq i8 %0, 0
  br i1 %guard.uninitialized, label %init.check, label %init.end, !prof !4

init.check:                                       ; preds = %entry
  %1 = tail call i32 @__cxa_guard_acquire(ptr nonnull @_ZGVZN8facebook5velox20generator_spec_utils8coinTossERSt23mersenne_twister_engineImLm32ELm624ELm397ELm31ELm2567483615ELm11ELm4294967295ELm7ELm2636928640ELm15ELm4022730752ELm18ELm1812433253EEdE4dist) #13
  %tobool.not = icmp eq i32 %1, 0
  br i1 %tobool.not, label %init.end, label %invoke.cont

invoke.cont:                                      ; preds = %init.check
  store double 1.000000e+00, ptr @_ZZN8facebook5velox20generator_spec_utils8coinTossERSt23mersenne_twister_engineImLm32ELm624ELm397ELm31ELm2567483615ELm11ELm4294967295ELm7ELm2636928640ELm15ELm4022730752ELm18ELm1812433253EEdE4dist.1, align 8
  tail call void @__cxa_guard_release(ptr nonnull @_ZGVZN8facebook5velox20generator_spec_utils8coinTossERSt23mersenne_twister_engineImLm32ELm624ELm397ELm31ELm2567483615ELm11ELm4294967295ELm7ELm2636928640ELm15ELm4022730752ELm18ELm1812433253EEdE4dist) #13
  br label %init.end

init.end:                                         ; preds = %invoke.cont, %init.check, %entry
  %call.i.i.i.i.i = tail call noundef x86_fp80 @logl(x86_fp80 noundef 0xK401F8000000000000000) #13
  %call.i8.i.i.i.i = tail call noundef x86_fp80 @logl(x86_fp80 noundef 0xK40008000000000000000) #13
  %div.i.i.i.i = fdiv x86_fp80 %call.i.i.i.i.i, %call.i8.i.i.i.i
  %conv5.i.i.i.i = fptoui x86_fp80 %div.i.i.i.i to i64
  %sub8.i.i.i.i = add i64 %conv5.i.i.i.i, 52
  %div9.i.i.i.i = udiv i64 %sub8.i.i.i.i, %conv5.i.i.i.i
  %spec.select.i.i.i.i = tail call i64 @llvm.umax.i64(i64 %div9.i.i.i.i, i64 1)
  br label %for.body.i.i.i.i

for.body.i.i.i.i:                                 ; preds = %for.body.i.i.i.i, %init.end
  %__k.013.i.i.i.i = phi i64 [ %spec.select.i.i.i.i, %init.end ], [ %dec.i.i.i.i, %for.body.i.i.i.i ]
  %__tmp.012.i.i.i.i = phi double [ 1.000000e+00, %init.end ], [ %conv16.i.i.i.i, %for.body.i.i.i.i ]
  %__sum.011.i.i.i.i = phi double [ 0.000000e+00, %init.end ], [ %2, %for.body.i.i.i.i ]
  %call11.i.i.i.i = tail call noundef i64 @_ZNSt23mersenne_twister_engineImLm32ELm624ELm397ELm31ELm2567483615ELm11ELm4294967295ELm7ELm2636928640ELm15ELm4022730752ELm18ELm1812433253EEclEv(ptr noundef nonnull align 8 dereferenceable(5000) %rng)
  %conv14.i.i.i.i = uitofp i64 %call11.i.i.i.i to double
  %2 = tail call double @llvm.fmuladd.f64(double %conv14.i.i.i.i, double %__tmp.012.i.i.i.i, double %__sum.011.i.i.i.i)
  %conv15.i.i.i.i = fpext double %__tmp.012.i.i.i.i to x86_fp80
  %mul.i.i.i.i = fmul x86_fp80 %conv15.i.i.i.i, 0xK401F8000000000000000
  %conv16.i.i.i.i = fptrunc x86_fp80 %mul.i.i.i.i to double
  %dec.i.i.i.i = add i64 %__k.013.i.i.i.i, -1
  %cmp.not.i.i.i.i = icmp eq i64 %dec.i.i.i.i, 0
  br i1 %cmp.not.i.i.i.i, label %for.end.i.i.i.i, label %for.body.i.i.i.i, !llvm.loop !5

for.end.i.i.i.i:                                  ; preds = %for.body.i.i.i.i
  %div17.i.i.i.i = fdiv double %2, %conv16.i.i.i.i
  %cmp18.i.i.i.i = fcmp ult double %div17.i.i.i.i, 1.000000e+00
  br i1 %cmp18.i.i.i.i, label %_ZNSt25uniform_real_distributionIdEclISt23mersenne_twister_engineImLm32ELm624ELm397ELm31ELm2567483615ELm11ELm4294967295ELm7ELm2636928640ELm15ELm4022730752ELm18ELm1812433253EEEEdRT_.exit, label %if.then.i.i.i.i

if.then.i.i.i.i:                                  ; preds = %for.end.i.i.i.i
  %call20.i.i.i.i = tail call double @nextafter(double noundef 1.000000e+00, double noundef 0.000000e+00) #13
  br label %_ZNSt25uniform_real_distributionIdEclISt23mersenne_twister_engineImLm32ELm624ELm397ELm31ELm2567483615ELm11ELm4294967295ELm7ELm2636928640ELm15ELm4022730752ELm18ELm1812433253EEEEdRT_.exit

_ZNSt25uniform_real_distributionIdEclISt23mersenne_twister_engineImLm32ELm624ELm397ELm31ELm2567483615ELm11ELm4294967295ELm7ELm2636928640ELm15ELm4022730752ELm18ELm1812433253EEEEdRT_.exit: ; preds = %for.end.i.i.i.i, %if.then.i.i.i.i
  %__ret.0.i.i.i.i = phi double [ %call20.i.i.i.i, %if.then.i.i.i.i ], [ %div17.i.i.i.i, %for.end.i.i.i.i ]
  %3 = load double, ptr @_ZZN8facebook5velox20generator_spec_utils8coinTossERSt23mersenne_twister_engineImLm32ELm624ELm397ELm31ELm2567483615ELm11ELm4294967295ELm7ELm2636928640ELm15ELm4022730752ELm18ELm1812433253EEdE4dist.1, align 8
  %4 = tail call noundef double @llvm.fmuladd.f64(double %__ret.0.i.i.i.i, double %3, double 0.000000e+00)
  %cmp = fcmp olt double %4, %threshold
  ret i1 %cmp
}